; ModuleID = 'source-C-CXX/53/1457.cpp'
source_filename = "source-C-CXX/53/1457.cpp"
target datalayout = "e-m:e-p270:32:32-p271:32:32-p272:64:64-i64:64-f80:128-n8:16:32:64-S128"
target triple = "x86_64-pc-linux-gnu"

%"class.std::ios_base::Init" = type { i8 }
%"class.std::basic_istream" = type { i32 (...)**, i64, %"class.std::basic_ios" }
%"class.std::basic_ios" = type { %"class.std::ios_base", %"class.std::basic_ostream"*, i8, i8, %"class.std::basic_streambuf"*, %"class.std::ctype"*, %"class.std::num_put"*, %"class.std::num_get"* }
%"class.std::ios_base" = type { i32 (...)**, i64, i64, i32, i32, i32, %"struct.std::ios_base::_Callback_list"*, %"struct.std::ios_base::_Words", [8 x %"struct.std::ios_base::_Words"], i32, %"struct.std::ios_base::_Words"*, %"class.std::locale" }
%"struct.std::ios_base::_Callback_list" = type { %"struct.std::ios_base::_Callback_list"*, void (i32, %"class.std::ios_base"*, i32)*, i32, i32 }
%"struct.std::ios_base::_Words" = type { i8*, i64 }
%"class.std::locale" = type { %"class.std::locale::_Impl"* }
%"class.std::locale::_Impl" = type { i32, %"class.std::locale::facet"**, i64, %"class.std::locale::facet"**, i8** }
%"class.std::locale::facet" = type <{ i32 (...)**, i32, [4 x i8] }>
%"class.std::basic_ostream" = type { i32 (...)**, %"class.std::basic_ios" }
%"class.std::basic_streambuf" = type { i32 (...)**, i8*, i8*, i8*, i8*, i8*, i8*, %"class.std::locale" }
%"class.std::ctype" = type <{ %"class.std::locale::facet.base", [4 x i8], %struct.__locale_struct*, i8, [7 x i8], i32*, i32*, i16*, i8, [256 x i8], [256 x i8], i8, [6 x i8] }>
%"class.std::locale::facet.base" = type <{ i32 (...)**, i32 }>
%struct.__locale_struct = type { [13 x %struct.__locale_data*], i16*, i32*, i32*, [13 x i8*] }
%struct.__locale_data = type opaque
%"class.std::num_put" = type { %"class.std::locale::facet.base", [4 x i8] }
%"class.std::num_get" = type { %"class.std::locale::facet.base", [4 x i8] }

@_ZStL8__ioinit = internal global %"class.std::ios_base::Init" zeroinitializer, align 1
@__dso_handle = external hidden global i8
@n = dso_local global i32 0, align 4
@k = dso_local global i32 0, align 4
@_ZSt3cin = external global %"class.std::basic_istream", align 8
@_ZSt4cout = external global %"class.std::basic_ostream", align 8
@llvm.global_ctors = appending global [1 x { i32, void ()*, i8* }] [{ i32, void ()*, i8* } { i32 65535, void ()* @_GLOBAL__sub_I_1457.cpp, i8* null }]

declare void @_ZNSt8ios_base4InitC1Ev(%"class.std::ios_base::Init"* nonnull align 1 dereferenceable(1)) unnamed_addr #0

; Function Attrs: nounwind
declare void @_ZNSt8ios_base4InitD1Ev(%"class.std::ios_base::Init"* nonnull align 1 dereferenceable(1)) unnamed_addr #1

; Function Attrs: nofree nounwind
declare i32 @__cxa_atexit(void (i8*)*, i8*, i8*) local_unnamed_addr #2

; Function Attrs: mustprogress nofree nosync nounwind readonly sspstrong uwtable willreturn
define dso_local i32 @_Z3Divii(i32 %0, i32 %1) local_unnamed_addr #3 {
  %3 = load i32, i32* @n, align 4
  %4 = add nsw i32 %3, -1
  %5 = load i32, i32* @k, align 4
  %6 = icmp eq i32 %1, 0
  br i1 %6, label %18, label %7

7:                                                ; preds = %2, %13
  %8 = phi i32 [ %16, %13 ], [ %1, %2 ]
  %9 = phi i32 [ %15, %13 ], [ %0, %2 ]
  %10 = srem i32 %9, %4
  %11 = sdiv i32 %9, %4
  %12 = icmp eq i32 %10, 0
  br i1 %12, label %13, label %18

13:                                               ; preds = %7
  %14 = add nsw i32 %11, %9
  %15 = add nsw i32 %14, %5
  %16 = add nsw i32 %8, -1
  %17 = icmp eq i32 %16, 0
  br i1 %17, label %18, label %7

18:                                               ; preds = %13, %7, %2
  %19 = phi i32 [ %0, %2 ], [ -1, %7 ], [ %15, %13 ]
  ret i32 %19
}

; Function Attrs: mustprogress norecurse sspstrong uwtable
define dso_local i32 @main() local_unnamed_addr #4 {
  %1 = tail call nonnull align 8 dereferenceable(16) %"class.std::basic_istream"* @_ZNSirsERi(%"class.std::basic_istream"* nonnull align 8 dereferenceable(16) @_ZSt3cin, i32* nonnull align 4 dereferenceable(4) @n)
  %2 = tail call nonnull align 8 dereferenceable(16) %"class.std::basic_istream"* @_ZNSirsERi(%"class.std::basic_istream"* nonnull align 8 dereferenceable(16) %1, i32* nonnull align 4 dereferenceable(4) @k)
  %3 = load i32, i32* @n, align 4, !tbaa !5
  %4 = load i32, i32* @k, align 4, !tbaa !5
  %5 = add nsw i32 %3, -1
  %6 = icmp eq i32 %5, 0
  br i1 %6, label %7, label %13

7:                                                ; preds = %0, %7
  %8 = phi i32 [ %12, %7 ], [ 1, %0 ]
  %9 = mul nsw i32 %3, %8
  %10 = add nsw i32 %9, %4
  %11 = icmp eq i32 %10, -1
  %12 = add nuw nsw i32 %8, 1
  br i1 %11, label %7, label %30, !llvm.loop !9

13:                                               ; preds = %0, %33
  %14 = phi i32 [ %34, %33 ], [ 1, %0 ]
  %15 = mul nsw i32 %3, %14
  %16 = add nsw i32 %15, %4
  br label %17

17:                                               ; preds = %13, %23
  %18 = phi i32 [ %26, %23 ], [ %5, %13 ]
  %19 = phi i32 [ %25, %23 ], [ %16, %13 ]
  %20 = srem i32 %19, %5
  %21 = sdiv i32 %19, %5
  %22 = icmp eq i32 %20, 0
  br i1 %22, label %23, label %33

23:                                               ; preds = %17
  %24 = add i32 %19, %4
  %25 = add i32 %24, %21
  %26 = add nsw i32 %18, -1
  %27 = icmp eq i32 %26, 0
  br i1 %27, label %28, label %17

28:                                               ; preds = %23
  %29 = icmp eq i32 %25, -1
  br i1 %29, label %33, label %30

30:                                               ; preds = %28, %7
  %31 = phi i32 [ %10, %7 ], [ %25, %28 ]
  %32 = tail call nonnull align 8 dereferenceable(8) %"class.std::basic_ostream"* @_ZNSolsEi(%"class.std::basic_ostream"* nonnull align 8 dereferenceable(8) @_ZSt4cout, i32 %31)
  ret i32 0

33:                                               ; preds = %17, %28
  %34 = add nuw nsw i32 %14, 1
  br label %13, !llvm.loop !9
}

declare nonnull align 8 dereferenceable(16) %"class.std::basic_istream"* @_ZNSirsERi(%"class.std::basic_istream"* nonnull align 8 dereferenceable(16), i32* nonnull align 4 dereferenceable(4)) local_unnamed_addr #0

declare nonnull align 8 dereferenceable(8) %"class.std::basic_ostream"* @_ZNSolsEi(%"class.std::basic_ostream"* nonnull align 8 dereferenceable(8), i32) local_unnamed_addr #0

; Function Attrs: sspstrong uwtable
define internal void @_GLOBAL__sub_I_1457.cpp() #5 section ".text.startup" {
  tail call void @_ZNSt8ios_base4InitC1Ev(%"class.std::ios_base::Init"* nonnull align 1 dereferenceable(1) @_ZStL8__ioinit)
  %1 = tail call i32 @__cxa_atexit(void (i8*)* bitcast (void (%"class.std::ios_base::Init"*)* @_ZNSt8ios_base4InitD1Ev to void (i8*)*), i8* getelementptr inbounds (%"class.std::ios_base::Init", %"class.std::ios_base::Init"* @_ZStL8__ioinit, i64 0, i32 0), i8* nonnull @__dso_handle) #6
  ret void
}


!llvm.module.flags = !{!0, !1, !2, !3}
!llvm.ident = !{!4}

!0 = !{i32 1, !"wchar_size", i32 4}
!1 = !{i32 7, !"PIC Level", i32 2}
!2 = !{i32 7, !"PIE Level", i32 2}
!3 = !{i32 7, !"uwtable", i32 1}
!4 = !{!"clang version 13.0.0"}
!5 = !{!6, !6, i64 0}
!6 = !{!"int", !7, i64 0}
!7 = !{!"omnipotent char", !8, i64 0}
!8 = !{!"Simple C++ TBAA"}
!9 = distinct !{!9, !10}
!10 = !{!"llvm.loop.mustprogress"}
